; Function Attrs: mustprogress nofree norecurse nosync nounwind willreturn memory(argmem: readwrite) uwtable
define range(i32 0, 2) i32 @BIO_ADDR_copy(ptr noundef writeonly captures(address_is_null) %0, ptr noundef readonly captures(address_is_null) %1) local_unnamed_addr #3 {
  %3 = icmp eq ptr %0, null
  %4 = icmp eq ptr %1, null
  %or.cond = or i1 %3, %4
  br i1 %or.cond, label %BIO_ADDR_make.exit, label %5

5:                                                ; preds = %2
  %6 = load i16, ptr %1, align 4, !tbaa !3
  switch i16 %6, label %BIO_ADDR_make.exit [
    i16 0, label %7
    i16 2, label %8
    i16 10, label %9
    i16 1, label %10
  ]

7:                                                ; preds = %5
  tail call void @llvm.memset.p0.i64(ptr noundef nonnull align 4 dereferenceable(112) %0, i8 0, i64 112, i1 false)
  br label %BIO_ADDR_make.exit

8:                                                ; preds = %5
  tail call void @llvm.memcpy.p0.p0.i64(ptr noundef nonnull align 4 dereferenceable(16) %0, ptr noundef nonnull readonly align 2 dereferenceable(16) %1, i64 16, i1 false)
  br label %BIO_ADDR_make.exit

9:                                                ; preds = %5
  tail call void @llvm.memcpy.p0.p0.i64(ptr noundef nonnull align 4 dereferenceable(28) %0, ptr noundef nonnull readonly align 2 dereferenceable(28) %1, i64 28, i1 false)
  br label %BIO_ADDR_make.exit

10:                                               ; preds = %5
  tail call void @llvm.memcpy.p0.p0.i64(ptr noundef nonnull align 4 dereferenceable(110) %0, ptr noundef nonnull readonly align 2 dereferenceable(110) %1, i64 110, i1 false)
  br label %BIO_ADDR_make.exit

BIO_ADDR_make.exit:                               ; preds = %5, %10, %9, %8, %2, %7
  %.0 = phi i32 [ 1, %7 ], [ 0, %2 ], [ 1, %8 ], [ 1, %9 ], [ 1, %10 ], [ 0, %5 ]
  ret i32 %.0
}